; Function Attrs: inlinehint nounwind uwtable
define internal fastcc void @tcp_connect(ptr noundef nonnull captures(none) %0, ptr noundef %1, i16 noundef zeroext %2, i32 noundef %3, ptr noundef nonnull %4) unnamed_addr #9 {
  %6 = alloca i32, align 4
  %7 = alloca %struct.sockaddr_in, align 4
  call void @llvm.lifetime.start.p0(i64 16, ptr nonnull %7) #20
  call void @llvm.memset.p0.i64(ptr noundef nonnull align 4 dereferenceable(16) %7, i8 0, i64 16, i1 false)
  %.not.i = icmp eq ptr %1, null
  br i1 %.not.i, label %19, label %8

8:                                                ; preds = %5
  %9 = tail call ptr @__ctype_b_loc() #27
  %10 = load ptr, ptr %9, align 8, !tbaa !38
  %11 = load i8, ptr %1, align 1, !tbaa !18
  %12 = zext i8 %11 to i64
  %13 = getelementptr inbounds nuw i16, ptr %10, i64 %12
  %14 = load i16, ptr %13, align 2, !tbaa !40
  %15 = and i16 %14, 1024
  %.not18.i = icmp eq i16 %15, 0
  br i1 %.not18.i, label %30, label %16

16:                                               ; preds = %8
  %17 = tail call ptr @gethostbyname(ptr noundef nonnull %1) #20
  %.not19.i = icmp eq ptr %17, null
  br i1 %.not19.i, label %18, label %21

18:                                               ; preds = %16
  tail call fastcc void @err_sys(ptr noundef nonnull @.str.206) #25
  unreachable

19:                                               ; preds = %5
  store i16 2, ptr %7, align 4, !tbaa !42
  %rev.i.i = tail call noundef i16 @llvm.bswap.i16(i16 %2)
  %20 = getelementptr inbounds nuw i8, ptr %7, i64 2
  store i16 %rev.i.i, ptr %20, align 2, !tbaa !45
  br label %build_addr.exit

21:                                               ; preds = %16
  %22 = getelementptr inbounds nuw i8, ptr %7, i64 4
  %23 = getelementptr inbounds nuw i8, ptr %17, i64 24
  %24 = load ptr, ptr %23, align 8, !tbaa !46
  %25 = load ptr, ptr %24, align 8, !tbaa !16
  %26 = getelementptr inbounds nuw i8, ptr %17, i64 20
  %27 = load i32, ptr %26, align 4, !tbaa !48
  %28 = sext i32 %27 to i64
  call void @llvm.memcpy.p0.p0.i64(ptr nonnull align 4 %22, ptr align 1 %25, i64 %28, i1 false)
  store i16 2, ptr %7, align 4, !tbaa !42
  %rev.i22.i = tail call noundef i16 @llvm.bswap.i16(i16 %2)
  %29 = getelementptr inbounds nuw i8, ptr %7, i64 2
  store i16 %rev.i22.i, ptr %29, align 2, !tbaa !45
  br label %build_addr.exit

30:                                               ; preds = %8
  store i16 2, ptr %7, align 4, !tbaa !42
  %rev.i2226.i = tail call noundef i16 @llvm.bswap.i16(i16 %2)
  %31 = getelementptr inbounds nuw i8, ptr %7, i64 2
  store i16 %rev.i2226.i, ptr %31, align 2, !tbaa !45
  %32 = tail call i32 @inet_addr(ptr noundef nonnull %1) #20
  %33 = getelementptr inbounds nuw i8, ptr %7, i64 4
  store i32 %32, ptr %33, align 4, !tbaa !49
  br label %build_addr.exit

build_addr.exit:                                  ; preds = %19, %21, %30
  %.not = icmp eq i32 %3, 0
  br i1 %.not, label %.split, label %.thread.i

.split:                                           ; preds = %build_addr.exit
  %34 = tail call i32 @socket(i32 noundef 2, i32 noundef 1, i32 noundef 6) #20
  store i32 %34, ptr %0, align 4, !tbaa !4
  %35 = icmp slt i32 %34, -1
  br i1 %35, label %36, label %37

36:                                               ; preds = %.split
  tail call fastcc void @err_sys_with_errno(ptr noundef nonnull @.str.207) #25
  unreachable

37:                                               ; preds = %.split
  %38 = tail call ptr @signal(i32 noundef 13, ptr noundef nonnull inttoptr (i64 1 to ptr)) #20
  call void @llvm.lifetime.start.p0(i64 4, ptr nonnull %6) #20
  store i32 1, ptr %6, align 4, !tbaa !4
  %39 = load i32, ptr %0, align 4, !tbaa !4
  %40 = call i32 @setsockopt(i32 noundef %39, i32 noundef 6, i32 noundef 1, ptr noundef nonnull %6, i32 noundef 4) #20
  %41 = icmp slt i32 %40, 0
  br i1 %41, label %42, label %49

42:                                               ; preds = %37
  call fastcc void @err_sys_with_errno(ptr noundef nonnull @.str.208) #25
  unreachable

.thread.i:                                        ; preds = %build_addr.exit
  %43 = call i32 @wolfSSL_dtls_set_peer(ptr noundef nonnull %4, ptr noundef nonnull %7, i32 noundef 16) #20
  %44 = call i32 @socket(i32 noundef 2, i32 noundef 2, i32 noundef 17) #20
  store i32 %44, ptr %0, align 4, !tbaa !4
  %45 = icmp slt i32 %44, -1
  br i1 %45, label %46, label %47

46:                                               ; preds = %.thread.i
  call fastcc void @err_sys_with_errno(ptr noundef nonnull @.str.207) #25
  unreachable

47:                                               ; preds = %.thread.i
  %48 = call ptr @signal(i32 noundef 13, ptr noundef nonnull inttoptr (i64 1 to ptr)) #20
  br label %53

49:                                               ; preds = %37
  call void @llvm.lifetime.end.p0(i64 4, ptr nonnull %6) #20
  %50 = load i32, ptr %0, align 4, !tbaa !4
  %51 = call i32 @connect(i32 noundef %50, ptr noundef nonnull %7, i32 noundef 16) #20
  %.not12 = icmp eq i32 %51, 0
  br i1 %.not12, label %53, label %52

52:                                               ; preds = %49
  call fastcc void @err_sys_with_errno(ptr noundef nonnull @.str.204) #25
  unreachable

53:                                               ; preds = %47, %49
  call void @llvm.lifetime.end.p0(i64 16, ptr nonnull %7) #20
  ret void
}